; ModuleID = '5/339.c'
source_filename = "5/339.c"
target datalayout = "e-m:e-p270:32:32-p271:32:32-p272:64:64-i64:64-f80:128-n8:16:32:64-S128"
target triple = "x86_64-pc-linux-gnu"

@.str = private unnamed_addr constant [10 x i8] c"%lf %s %s\00", align 1
@.str.1 = private unnamed_addr constant [6 x i8] c"error\00", align 1
@.str.2 = private unnamed_addr constant [4 x i8] c"yes\00", align 1
@.str.3 = private unnamed_addr constant [3 x i8] c"no\00", align 1

; Function Attrs: noinline nounwind uwtable
define dso_local i32 @main() #0 {
  %1 = alloca i32, align 4
  %2 = alloca i32, align 4
  %3 = alloca i32, align 4
  %4 = alloca i32, align 4
  %5 = alloca double, align 8
  %6 = alloca [501 x i8], align 16
  %7 = alloca [501 x i8], align 16
  store i32 0, i32* %1, align 4
  store i32 0, i32* %3, align 4
  store i32 1, i32* %4, align 4
  %8 = getelementptr inbounds [501 x i8], [501 x i8]* %6, i64 0, i64 0
  %9 = getelementptr inbounds [501 x i8], [501 x i8]* %7, i64 0, i64 0
  %10 = call i32 (i8*, ...) @__isoc99_scanf(i8* getelementptr inbounds ([10 x i8], [10 x i8]* @.str, i64 0, i64 0), double* %5, i8* %8, i8* %9)
  %11 = getelementptr inbounds [501 x i8], [501 x i8]* %6, i64 0, i64 0
  %12 = call i64 @strlen(i8* %11) #3
  %13 = getelementptr inbounds [501 x i8], [501 x i8]* %7, i64 0, i64 0
  %14 = call i64 @strlen(i8* %13) #3
  %15 = icmp ne i64 %12, %14
  br i1 %15, label %16, label %18

16:                                               ; preds = %0
  %17 = call i32 (i8*, ...) @printf(i8* getelementptr inbounds ([6 x i8], [6 x i8]* @.str.1, i64 0, i64 0))
  br label %122

18:                                               ; preds = %0
  store i32 0, i32* %2, align 4
  br label %19

19:                                               ; preds = %100, %18
  %20 = load i32, i32* %2, align 4
  %21 = sext i32 %20 to i64
  %22 = getelementptr inbounds [501 x i8], [501 x i8]* %6, i64 0, i64 0
  %23 = call i64 @strlen(i8* %22) #3
  %24 = icmp ult i64 %21, %23
  br i1 %24, label %25, label %103

25:                                               ; preds = %19
  %26 = load i32, i32* %2, align 4
  %27 = sext i32 %26 to i64
  %28 = getelementptr inbounds [501 x i8], [501 x i8]* %6, i64 0, i64 %27
  %29 = load i8, i8* %28, align 1
  %30 = sext i8 %29 to i32
  %31 = icmp ne i32 %30, 65
  br i1 %31, label %32, label %83

32:                                               ; preds = %25
  %33 = load i32, i32* %2, align 4
  %34 = sext i32 %33 to i64
  %35 = getelementptr inbounds [501 x i8], [501 x i8]* %6, i64 0, i64 %34
  %36 = load i8, i8* %35, align 1
  %37 = sext i8 %36 to i32
  %38 = icmp ne i32 %37, 67
  br i1 %38, label %39, label %83

39:                                               ; preds = %32
  %40 = load i32, i32* %2, align 4
  %41 = sext i32 %40 to i64
  %42 = getelementptr inbounds [501 x i8], [501 x i8]* %6, i64 0, i64 %41
  %43 = load i8, i8* %42, align 1
  %44 = sext i8 %43 to i32
  %45 = icmp ne i32 %44, 71
  br i1 %45, label %46, label %83

46:                                               ; preds = %39
  %47 = load i32, i32* %2, align 4
  %48 = sext i32 %47 to i64
  %49 = getelementptr inbounds [501 x i8], [501 x i8]* %6, i64 0, i64 %48
  %50 = load i8, i8* %49, align 1
  %51 = sext i8 %50 to i32
  %52 = icmp ne i32 %51, 84
  br i1 %52, label %53, label %83

53:                                               ; preds = %46
  %54 = load i32, i32* %2, align 4
  %55 = sext i32 %54 to i64
  %56 = getelementptr inbounds [501 x i8], [501 x i8]* %7, i64 0, i64 %55
  %57 = load i8, i8* %56, align 1
  %58 = sext i8 %57 to i32
  %59 = icmp ne i32 %58, 65
  br i1 %59, label %60, label %83

60:                                               ; preds = %53
  %61 = load i32, i32* %2, align 4
  %62 = sext i32 %61 to i64
  %63 = getelementptr inbounds [501 x i8], [501 x i8]* %7, i64 0, i64 %62
  %64 = load i8, i8* %63, align 1
  %65 = sext i8 %64 to i32
  %66 = icmp ne i32 %65, 71
  br i1 %66, label %67, label %83

67:                                               ; preds = %60
  %68 = load i32, i32* %2, align 4
  %69 = sext i32 %68 to i64
  %70 = getelementptr inbounds [501 x i8], [501 x i8]* %7, i64 0, i64 %69
  %71 = load i8, i8* %70, align 1
  %72 = sext i8 %71 to i32
  %73 = icmp ne i32 %72, 67
  br i1 %73, label %74, label %83

74:                                               ; preds = %67
  %75 = load i32, i32* %2, align 4
  %76 = sext i32 %75 to i64
  %77 = getelementptr inbounds [501 x i8], [501 x i8]* %7, i64 0, i64 %76
  %78 = load i8, i8* %77, align 1
  %79 = sext i8 %78 to i32
  %80 = icmp ne i32 %79, 84
  br i1 %80, label %81, label %83

81:                                               ; preds = %74
  store i32 0, i32* %4, align 4
  %82 = call i32 (i8*, ...) @printf(i8* getelementptr inbounds ([6 x i8], [6 x i8]* @.str.1, i64 0, i64 0))
  br label %103

83:                                               ; preds = %74, %67, %60, %53, %46, %39, %32, %25
  %84 = load i32, i32* %2, align 4
  %85 = sext i32 %84 to i64
  %86 = getelementptr inbounds [501 x i8], [501 x i8]* %6, i64 0, i64 %85
  %87 = load i8, i8* %86, align 1
  %88 = sext i8 %87 to i32
  %89 = load i32, i32* %2, align 4
  %90 = sext i32 %89 to i64
  %91 = getelementptr inbounds [501 x i8], [501 x i8]* %7, i64 0, i64 %90
  %92 = load i8, i8* %91, align 1
  %93 = sext i8 %92 to i32
  %94 = icmp eq i32 %88, %93
  br i1 %94, label %95, label %98

95:                                               ; preds = %83
  %96 = load i32, i32* %3, align 4
  %97 = add nsw i32 %96, 1
  store i32 %97, i32* %3, align 4
  br label %98

98:                                               ; preds = %95, %83
  br label %99

99:                                               ; preds = %98
  br label %100

100:                                              ; preds = %99
  %101 = load i32, i32* %2, align 4
  %102 = add nsw i32 %101, 1
  store i32 %102, i32* %2, align 4
  br label %19

103:                                              ; preds = %81, %19
  %104 = load i32, i32* %4, align 4
  %105 = icmp eq i32 %104, 1
  br i1 %105, label %106, label %121

106:                                              ; preds = %103
  %107 = load i32, i32* %3, align 4
  %108 = sitofp i32 %107 to double
  %109 = fmul double 1.000000e+00, %108
  %110 = getelementptr inbounds [501 x i8], [501 x i8]* %6, i64 0, i64 0
  %111 = call i64 @strlen(i8* %110) #3
  %112 = uitofp i64 %111 to double
  %113 = fdiv double %109, %112
  %114 = load double, double* %5, align 8
  %115 = fcmp ogt double %113, %114
  br i1 %115, label %116, label %118

116:                                              ; preds = %106
  %117 = call i32 (i8*, ...) @printf(i8* getelementptr inbounds ([4 x i8], [4 x i8]* @.str.2, i64 0, i64 0))
  br label %120

118:                                              ; preds = %106
  %119 = call i32 (i8*, ...) @printf(i8* getelementptr inbounds ([3 x i8], [3 x i8]* @.str.3, i64 0, i64 0))
  br label %120

120:                                              ; preds = %118, %116
  br label %121

121:                                              ; preds = %120, %103
  br label %122

122:                                              ; preds = %121, %16
  ret i32 0
}

declare dso_local i32 @__isoc99_scanf(i8*, ...) #1

; Function Attrs: nounwind readonly
declare dso_local i64 @strlen(i8*) #2

declare dso_local i32 @printf(i8*, ...) #1


!llvm.module.flags = !{!0}
!llvm.ident = !{!1}

!0 = !{i32 1, !"wchar_size", i32 4}
!1 = !{!"clang version 10.0.0-4ubuntu1 "}
